Certificate:
    Data:
        Version: 3 (0x2)
        Serial Number: 1 (0x1)
        Signature Algorithm: sha256WithRSAEncryption
        Issuer: CN=myCA, ST=BJ, C=CN/emailAddress=emailAddress, O=UCAS, OU=IS
        Validity
            Not Before: Nov  9 01:26:04 2021 GMT
            Not After : Nov  8 01:26:04 2026 GMT
        Subject: CN=localhost, ST=BJ, C=CN/emailAddress=emailAddress, O=UCAS, OU=IS
        Subject Public Key Info:
            Public Key Algorithm: rsaEncryption
                RSA Public-Key: (2048 bit)
                Modulus:
                    00:b2:a9:ed:d0:b5:ba:13:05:fb:5f:e2:97:ef:2c:
                    22:04:75:d2:c0:2e:fd:52:0e:17:fb:60:3d:73:a2:
                    61:43:e3:c0:cc:83:c2:7b:de:7f:58:14:b6:5a:20:
                    ef:16:b1:44:84:1e:fc:ef:1d:af:0b:e7:e9:3a:ae:
                    e0:42:bd:2d:65:cc:f9:01:49:4f:4f:4f:c4:74:a3:
                    01:00:61:a4:18:e5:33:cf:56:22:58:21:60:7b:1f:
                    c7:3a:a6:53:34:03:f4:ae:a6:cf:4a:14:0c:f0:7a:
                    b6:38:96:98:bd:aa:bb:ea:f4:96:3a:d6:56:77:ef:
                    a5:fb:dc:c3:b9:0c:a7:8a:d0:62:19:b8:bf:68:ab:
                    f2:6f:f0:c9:ee:6f:e1:8b:bc:5b:ab:1d:a5:9c:b2:
                    05:31:28:09:63:0d:07:a1:9b:80:ad:a3:8a:f4:14:
                    a2:4c:12:e4:bb:c1:6c:73:1a:ff:c2:22:9a:c5:c7:
                    c7:dd:fe:a5:da:88:95:8c:85:86:dc:83:92:5e:60:
                    ce:71:4a:9b:0c:a8:ec:a4:68:2a:20:af:66:94:0a:
                    e2:9a:02:bc:68:03:9b:1f:bd:a0:e5:81:17:b3:bb:
                    5f:ce:ce:94:c5:68:f0:85:4e:56:63:c0:15:09:9c:
                    ab:22:96:f2:20:5a:f0:27:b2:dc:17:b7:6f:e8:73:
                    4c:75
                Exponent: 65537 (0x10001)
        X509v3 extensions:
            X509v3 Basic Constraints: 
                CA:FALSE
    Signature Algorithm: sha256WithRSAEncryption
         b3:dc:98:24:69:da:ca:e4:70:ff:80:4a:18:6f:0c:3c:f4:b7:
         61:3f:46:62:ae:e1:ae:f8:ad:1e:66:b3:5a:c3:cf:52:2e:5c:
         2d:68:e0:aa:45:42:7c:72:14:68:41:f4:96:c7:6d:14:50:f5:
         a7:fa:50:66:7c:a4:a7:82:7e:63:f6:a4:e7:e0:bd:61:c0:5c:
         68:37:88:95:9c:16:6e:8e:34:1e:4f:2f:41:3f:4a:ac:38:58:
         23:08:7b:ad:7b:ff:fd:64:14:83:b9:c9:0d:f7:62:52:c5:fc:
         89:34:a0:5b:3e:f8:84:10:d8:b4:94:73:af:0f:09:eb:31:3b:
         85:3c:b2:c2:d0:0d:9a:73:ef:49:bc:31:21:50:12:8d:53:e0:
         e1:0c:94:b3:cd:d7:22:4a:16:28:24:db:b4:35:47:00:0c:0d:
         f2:de:a0:5e:29:b0:c0:38:07:b4:52:ea:69:15:f9:bc:59:07:
         95:86:d1:35:c3:55:7a:54:d1:59:a9:ba:3d:17:72:19:bc:62:
         7b:bb:3f:59:0a:bb:60:80:43:70:21:98:4d:0b:78:b8:9a:e5:
         fb:26:d0:af:97:65:08:73:e6:30:b5:ad:c4:dc:c0:82:44:2a:
         b8:33:88:ac:e0:58:74:8b:df:ac:40:85:06:db:39:01:c7:ca:
         02:9c:94:98
-----BEGIN CERTIFICATE-----
MIIDUTCCAjmgAwIBAgIBATANBgkqhkiG9w0BAQsFADBiMQ0wCwYDVQQDDARteUNB
MQswCQYDVQQIDAJCSjELMAkGA1UEBhMCQ04xGzAZBgkqhkiG9w0BCQEWDGVtYWls
QWRkcmVzczENMAsGA1UECgwEVUNBUzELMAkGA1UECwwCSVMwHhcNMjExMTA5MDEy
NjA0WhcNMjYxMTA4MDEyNjA0WjBnMRIwEAYDVQQDDAlsb2NhbGhvc3QxCzAJBgNV
BAgMAkJKMQswCQYDVQQGEwJDTjEbMBkGCSqGSIb3DQEJARYMZW1haWxBZGRyZXNz
MQ0wCwYDVQQKDARVQ0FTMQswCQYDVQQLDAJJUzCCASIwDQYJKoZIhvcNAQEBBQAD
ggEPADCCAQoCggEBALKp7dC1uhMF+1/il+8sIgR10sAu/VIOF/tgPXOiYUPjwMyD
wnvef1gUtlog7xaxRIQe/O8drwvn6Tqu4EK9LWXM+QFJT09PxHSjAQBhpBjlM89W
IlghYHsfxzqmUzQD9K6mz0oUDPB6tjiWmL2qu+r0ljrWVnfvpfvcw7kMp4rQYhm4
v2ir8m/wye5v4Yu8W6sdpZyyBTEoCWMNB6GbgK2jivQUokwS5LvBbHMa/8IimsXH
x93+pdqIlYyFhtyDkl5gznFKmwyo7KRoKiCvZpQK4poCvGgDmx+9oOWBF7O7X87O
lMVo8IVOVmPAFQmcqyKW8iBa8Cey3Be3b+hzTHUCAwEAAaMNMAswCQYDVR0TBAIw
ADANBgkqhkiG9w0BAQsFAAOCAQEAs9yYJGnayuRw/4BKGG8MPPS3YT9GYq7hrvit
HmazWsPPUi5cLWjgqkVCfHIUaEH0lsdtFFD1p/pQZnykp4J+Y/ak5+C9YcBcaDeI
lZwWbo40Hk8vQT9KrDhYIwh7rXv//WQUg7nJDfdiUsX8iTSgWz74hBDYtJRzrw8J
6zE7hTyywtANmnPvSbwxIVASjVPg4QyUs83XIkoWKCTbtDVHAAwN8t6gXimwwDgH
tFLqaRX5vFkHlYbRNcNVelTRWam6PRdyGbxie7s/WQq7YIBDcCGYTQt4uJrl+ybQ
r5dlCHPmMLWtxNzAgkQquDOIrOBYdIvfrECFBts5AcfKApyUmA==
-----END CERTIFICATE-----
